target datalayout = "e-m:e-p270:32:32-p271:32:32-p272:64:64-i64:64-i128:128-f80:128-n8:16:32:64-S128"
target triple = "x86_64-pc-linux-gnu"

%struct.FT_Outline_ = type { i16, i16, ptr, ptr, ptr, i32 }
%struct.FT_GlyphLoaderRec_ = type { ptr, i32, i32, i32, i8, %struct.FT_GlyphLoadRec_, %struct.FT_GlyphLoadRec_, ptr }
%struct.FT_GlyphLoadRec_ = type { %struct.FT_Outline_, ptr, ptr, i32, ptr }
%struct.FT_MemoryRec_ = type { ptr, ptr, ptr, ptr }

; Function Attrs: nounwind uwtable
define hidden void @FT_GlyphLoader_Rewind(ptr noundef %0) #0 {
  %2 = alloca ptr, align 8
  %3 = alloca ptr, align 8
  %4 = alloca ptr, align 8
  store ptr %0, ptr %2, align 8, !tbaa !188
  call void @llvm.lifetime.start.p0(i64 8, ptr %3) #10
  %5 = load ptr, ptr %2, align 8, !tbaa !188
  %6 = getelementptr inbounds nuw %struct.FT_GlyphLoaderRec_, ptr %5, i32 0, i32 5
  store ptr %6, ptr %3, align 8, !tbaa !192
  call void @llvm.lifetime.start.p0(i64 8, ptr %4) #10
  %7 = load ptr, ptr %2, align 8, !tbaa !188
  %8 = getelementptr inbounds nuw %struct.FT_GlyphLoaderRec_, ptr %7, i32 0, i32 6
  store ptr %8, ptr %4, align 8, !tbaa !192
  %9 = load ptr, ptr %3, align 8, !tbaa !192
  %10 = getelementptr inbounds nuw %struct.FT_GlyphLoadRec_, ptr %9, i32 0, i32 0
  %11 = getelementptr inbounds nuw %struct.FT_Outline_, ptr %10, i32 0, i32 1
  store i16 0, ptr %11, align 2, !tbaa !194
  %12 = load ptr, ptr %3, align 8, !tbaa !192
  %13 = getelementptr inbounds nuw %struct.FT_GlyphLoadRec_, ptr %12, i32 0, i32 0
  %14 = getelementptr inbounds nuw %struct.FT_Outline_, ptr %13, i32 0, i32 0
  store i16 0, ptr %14, align 8, !tbaa !195
  %15 = load ptr, ptr %3, align 8, !tbaa !192
  %16 = getelementptr inbounds nuw %struct.FT_GlyphLoadRec_, ptr %15, i32 0, i32 0
  %17 = getelementptr inbounds nuw %struct.FT_Outline_, ptr %16, i32 0, i32 5
  store i32 0, ptr %17, align 8, !tbaa !196
  %18 = load ptr, ptr %3, align 8, !tbaa !192
  %19 = getelementptr inbounds nuw %struct.FT_GlyphLoadRec_, ptr %18, i32 0, i32 3
  store i32 0, ptr %19, align 8, !tbaa !197
  %20 = load ptr, ptr %4, align 8, !tbaa !192
  %21 = load ptr, ptr %3, align 8, !tbaa !192
  call void @llvm.memcpy.p0.p0.i64(ptr align 8 %20, ptr align 8 %21, i64 72, i1 false), !tbaa.struct !198
  call void @llvm.lifetime.end.p0(i64 8, ptr %4) #10
  call void @llvm.lifetime.end.p0(i64 8, ptr %3) #10
  ret void
}

; Function Attrs: nounwind uwtable
define hidden void @ft_mem_free(ptr noundef %0, ptr noundef %1) #0 {
  %3 = alloca ptr, align 8
  %4 = alloca ptr, align 8
  store ptr %0, ptr %3, align 8, !tbaa !185
  store ptr %1, ptr %4, align 8, !tbaa !41
  %5 = load ptr, ptr %4, align 8, !tbaa !41
  %6 = icmp ne ptr %5, null
  br i1 %6, label %7, label %13

7:                                                ; preds = %2
  %8 = load ptr, ptr %3, align 8, !tbaa !185
  %9 = getelementptr inbounds nuw %struct.FT_MemoryRec_, ptr %8, i32 0, i32 2
  %10 = load ptr, ptr %9, align 8, !tbaa !209
  %11 = load ptr, ptr %3, align 8, !tbaa !185
  %12 = load ptr, ptr %4, align 8, !tbaa !41
  call void %10(ptr noundef %11, ptr noundef %12)
  br label %13

13:                                               ; preds = %7, %2
  ret void
}

; Function Attrs: nounwind uwtable
define hidden void @FT_GlyphLoader_Reset(ptr noundef %0) #0 {
  %2 = alloca ptr, align 8
  %3 = alloca ptr, align 8
  store ptr %0, ptr %2, align 8, !tbaa !188
  call void @llvm.lifetime.start.p0(i64 8, ptr %3) #10
  %4 = load ptr, ptr %2, align 8, !tbaa !188
  %5 = getelementptr inbounds nuw %struct.FT_GlyphLoaderRec_, ptr %4, i32 0, i32 0
  %6 = load ptr, ptr %5, align 8, !tbaa !189
  store ptr %6, ptr %3, align 8, !tbaa !185
  br label %7

7:                                                ; preds = %1
  %8 = load ptr, ptr %3, align 8, !tbaa !185
  %9 = load ptr, ptr %2, align 8, !tbaa !188
  %10 = getelementptr inbounds nuw %struct.FT_GlyphLoaderRec_, ptr %9, i32 0, i32 5
  %11 = getelementptr inbounds nuw %struct.FT_GlyphLoadRec_, ptr %10, i32 0, i32 0
  %12 = getelementptr inbounds nuw %struct.FT_Outline_, ptr %11, i32 0, i32 2
  %13 = load ptr, ptr %12, align 8, !tbaa !200
  call void @ft_mem_free(ptr noundef %8, ptr noundef %13)
  %14 = load ptr, ptr %2, align 8, !tbaa !188
  %15 = getelementptr inbounds nuw %struct.FT_GlyphLoaderRec_, ptr %14, i32 0, i32 5
  %16 = getelementptr inbounds nuw %struct.FT_GlyphLoadRec_, ptr %15, i32 0, i32 0
  %17 = getelementptr inbounds nuw %struct.FT_Outline_, ptr %16, i32 0, i32 2
  store ptr null, ptr %17, align 8, !tbaa !200
  br label %18

18:                                               ; preds = %7
  br label %19

19:                                               ; preds = %18
  br label %20

20:                                               ; preds = %19
  %21 = load ptr, ptr %3, align 8, !tbaa !185
  %22 = load ptr, ptr %2, align 8, !tbaa !188
  %23 = getelementptr inbounds nuw %struct.FT_GlyphLoaderRec_, ptr %22, i32 0, i32 5
  %24 = getelementptr inbounds nuw %struct.FT_GlyphLoadRec_, ptr %23, i32 0, i32 0
  %25 = getelementptr inbounds nuw %struct.FT_Outline_, ptr %24, i32 0, i32 3
  %26 = load ptr, ptr %25, align 8, !tbaa !201
  call void @ft_mem_free(ptr noundef %21, ptr noundef %26)
  %27 = load ptr, ptr %2, align 8, !tbaa !188
  %28 = getelementptr inbounds nuw %struct.FT_GlyphLoaderRec_, ptr %27, i32 0, i32 5
  %29 = getelementptr inbounds nuw %struct.FT_GlyphLoadRec_, ptr %28, i32 0, i32 0
  %30 = getelementptr inbounds nuw %struct.FT_Outline_, ptr %29, i32 0, i32 3
  store ptr null, ptr %30, align 8, !tbaa !201
  br label %31

31:                                               ; preds = %20
  br label %32

32:                                               ; preds = %31
  br label %33

33:                                               ; preds = %32
  %34 = load ptr, ptr %3, align 8, !tbaa !185
  %35 = load ptr, ptr %2, align 8, !tbaa !188
  %36 = getelementptr inbounds nuw %struct.FT_GlyphLoaderRec_, ptr %35, i32 0, i32 5
  %37 = getelementptr inbounds nuw %struct.FT_GlyphLoadRec_, ptr %36, i32 0, i32 0
  %38 = getelementptr inbounds nuw %struct.FT_Outline_, ptr %37, i32 0, i32 4
  %39 = load ptr, ptr %38, align 8, !tbaa !202
  call void @ft_mem_free(ptr noundef %34, ptr noundef %39)
  %40 = load ptr, ptr %2, align 8, !tbaa !188
  %41 = getelementptr inbounds nuw %struct.FT_GlyphLoaderRec_, ptr %40, i32 0, i32 5
  %42 = getelementptr inbounds nuw %struct.FT_GlyphLoadRec_, ptr %41, i32 0, i32 0
  %43 = getelementptr inbounds nuw %struct.FT_Outline_, ptr %42, i32 0, i32 4
  store ptr null, ptr %43, align 8, !tbaa !202
  br label %44

44:                                               ; preds = %33
  br label %45

45:                                               ; preds = %44
  br label %46

46:                                               ; preds = %45
  %47 = load ptr, ptr %3, align 8, !tbaa !185
  %48 = load ptr, ptr %2, align 8, !tbaa !188
  %49 = getelementptr inbounds nuw %struct.FT_GlyphLoaderRec_, ptr %48, i32 0, i32 5
  %50 = getelementptr inbounds nuw %struct.FT_GlyphLoadRec_, ptr %49, i32 0, i32 1
  %51 = load ptr, ptr %50, align 8, !tbaa !203
  call void @ft_mem_free(ptr noundef %47, ptr noundef %51)
  %52 = load ptr, ptr %2, align 8, !tbaa !188
  %53 = getelementptr inbounds nuw %struct.FT_GlyphLoaderRec_, ptr %52, i32 0, i32 5
  %54 = getelementptr inbounds nuw %struct.FT_GlyphLoadRec_, ptr %53, i32 0, i32 1
  store ptr null, ptr %54, align 8, !tbaa !203
  br label %55

55:                                               ; preds = %46
  br label %56

56:                                               ; preds = %55
  br label %57

57:                                               ; preds = %56
  %58 = load ptr, ptr %3, align 8, !tbaa !185
  %59 = load ptr, ptr %2, align 8, !tbaa !188
  %60 = getelementptr inbounds nuw %struct.FT_GlyphLoaderRec_, ptr %59, i32 0, i32 5
  %61 = getelementptr inbounds nuw %struct.FT_GlyphLoadRec_, ptr %60, i32 0, i32 4
  %62 = load ptr, ptr %61, align 8, !tbaa !204
  call void @ft_mem_free(ptr noundef %58, ptr noundef %62)
  %63 = load ptr, ptr %2, align 8, !tbaa !188
  %64 = getelementptr inbounds nuw %struct.FT_GlyphLoaderRec_, ptr %63, i32 0, i32 5
  %65 = getelementptr inbounds nuw %struct.FT_GlyphLoadRec_, ptr %64, i32 0, i32 4
  store ptr null, ptr %65, align 8, !tbaa !204
  br label %66

66:                                               ; preds = %57
  br label %67

67:                                               ; preds = %66
  %68 = load ptr, ptr %2, align 8, !tbaa !188
  %69 = getelementptr inbounds nuw %struct.FT_GlyphLoaderRec_, ptr %68, i32 0, i32 5
  %70 = getelementptr inbounds nuw %struct.FT_GlyphLoadRec_, ptr %69, i32 0, i32 2
  store ptr null, ptr %70, align 8, !tbaa !205
  %71 = load ptr, ptr %2, align 8, !tbaa !188
  %72 = getelementptr inbounds nuw %struct.FT_GlyphLoaderRec_, ptr %71, i32 0, i32 1
  store i32 0, ptr %72, align 8, !tbaa !206
  %73 = load ptr, ptr %2, align 8, !tbaa !188
  %74 = getelementptr inbounds nuw %struct.FT_GlyphLoaderRec_, ptr %73, i32 0, i32 2
  store i32 0, ptr %74, align 4, !tbaa !207
  %75 = load ptr, ptr %2, align 8, !tbaa !188
  %76 = getelementptr inbounds nuw %struct.FT_GlyphLoaderRec_, ptr %75, i32 0, i32 3
  store i32 0, ptr %76, align 8, !tbaa !208
  %77 = load ptr, ptr %2, align 8, !tbaa !188
  call void @FT_GlyphLoader_Rewind(ptr noundef %77)
  call void @llvm.lifetime.end.p0(i64 8, ptr %3) #10
  ret void
}