; Function Attrs: nounwind uwtable
define hidden void @FT_GlyphLoader_Reset(ptr noundef captures(none) initializes((8, 20), (24, 28), (56, 60), (72, 84)) %0) local_unnamed_addr #0 {
  %2 = load ptr, ptr %0, align 8, !tbaa !180
  %3 = getelementptr inbounds nuw i8, ptr %0, i64 32
  %4 = load ptr, ptr %3, align 8, !tbaa !192
  %.not.i = icmp eq ptr %4, null
  br i1 %.not.i, label %ft_mem_free.exit, label %5

5:                                                ; preds = %1
  %6 = getelementptr inbounds nuw i8, ptr %2, i64 16
  %7 = load ptr, ptr %6, align 8, !tbaa !61
  tail call void %7(ptr noundef %2, ptr noundef nonnull %4) #34
  br label %ft_mem_free.exit

ft_mem_free.exit:                                 ; preds = %1, %5
  store ptr null, ptr %3, align 8, !tbaa !192
  %8 = getelementptr inbounds nuw i8, ptr %0, i64 40
  %9 = load ptr, ptr %8, align 8, !tbaa !193
  %.not.i21 = icmp eq ptr %9, null
  br i1 %.not.i21, label %ft_mem_free.exit22, label %10

10:                                               ; preds = %ft_mem_free.exit
  %11 = getelementptr inbounds nuw i8, ptr %2, i64 16
  %12 = load ptr, ptr %11, align 8, !tbaa !61
  tail call void %12(ptr noundef %2, ptr noundef nonnull %9) #34
  br label %ft_mem_free.exit22

ft_mem_free.exit22:                               ; preds = %ft_mem_free.exit, %10
  store ptr null, ptr %8, align 8, !tbaa !193
  %13 = getelementptr inbounds nuw i8, ptr %0, i64 48
  %14 = load ptr, ptr %13, align 8, !tbaa !194
  %.not.i23 = icmp eq ptr %14, null
  br i1 %.not.i23, label %ft_mem_free.exit24, label %15

15:                                               ; preds = %ft_mem_free.exit22
  %16 = getelementptr inbounds nuw i8, ptr %2, i64 16
  %17 = load ptr, ptr %16, align 8, !tbaa !61
  tail call void %17(ptr noundef %2, ptr noundef nonnull %14) #34
  br label %ft_mem_free.exit24

ft_mem_free.exit24:                               ; preds = %ft_mem_free.exit22, %15
  store ptr null, ptr %13, align 8, !tbaa !194
  %18 = getelementptr inbounds nuw i8, ptr %0, i64 64
  %19 = load ptr, ptr %18, align 8, !tbaa !195
  %.not.i25 = icmp eq ptr %19, null
  br i1 %.not.i25, label %ft_mem_free.exit26, label %20

20:                                               ; preds = %ft_mem_free.exit24
  %21 = getelementptr inbounds nuw i8, ptr %2, i64 16
  %22 = load ptr, ptr %21, align 8, !tbaa !61
  tail call void %22(ptr noundef %2, ptr noundef nonnull %19) #34
  br label %ft_mem_free.exit26

ft_mem_free.exit26:                               ; preds = %ft_mem_free.exit24, %20
  store ptr null, ptr %18, align 8, !tbaa !195
  %23 = getelementptr inbounds nuw i8, ptr %0, i64 88
  %24 = load ptr, ptr %23, align 8, !tbaa !196
  %.not.i27 = icmp eq ptr %24, null
  br i1 %.not.i27, label %ft_mem_free.exit28, label %25

25:                                               ; preds = %ft_mem_free.exit26
  %26 = getelementptr inbounds nuw i8, ptr %2, i64 16
  %27 = load ptr, ptr %26, align 8, !tbaa !61
  tail call void %27(ptr noundef %2, ptr noundef nonnull %24) #34
  br label %ft_mem_free.exit28

ft_mem_free.exit28:                               ; preds = %ft_mem_free.exit26, %25
  store ptr null, ptr %23, align 8, !tbaa !196
  %28 = getelementptr inbounds nuw i8, ptr %0, i64 72
  store ptr null, ptr %28, align 8, !tbaa !197
  %29 = getelementptr inbounds nuw i8, ptr %0, i64 8
  store i32 0, ptr %29, align 8, !tbaa !198
  %30 = getelementptr inbounds nuw i8, ptr %0, i64 12
  store i32 0, ptr %30, align 4, !tbaa !199
  %31 = getelementptr inbounds nuw i8, ptr %0, i64 16
  store i32 0, ptr %31, align 8, !tbaa !200
  %32 = getelementptr inbounds nuw i8, ptr %0, i64 24
  %33 = getelementptr inbounds nuw i8, ptr %0, i64 96
  %34 = getelementptr inbounds nuw i8, ptr %0, i64 26
  store i16 0, ptr %34, align 2, !tbaa !184
  store i16 0, ptr %32, align 8, !tbaa !185
  %35 = getelementptr inbounds nuw i8, ptr %0, i64 56
  store i32 0, ptr %35, align 8, !tbaa !186
  %36 = getelementptr inbounds nuw i8, ptr %0, i64 80
  store i32 0, ptr %36, align 8, !tbaa !187
  tail call void @llvm.memcpy.p0.p0.i64(ptr noundef nonnull align 8 dereferenceable(72) %33, ptr noundef nonnull align 8 dereferenceable(72) %32, i64 72, i1 false), !tbaa.struct !188
  ret void
}